; Function Attrs: nounwind uwtable
define i32 @luckyCanonicizer_final_fast1(ptr noundef %0, i32 noundef %1, ptr noundef %2) local_unnamed_addr #0 {
  %4 = alloca [16 x i32], align 16
  %5 = alloca i32, align 4
  call void @llvm.lifetime.start.p0(i64 64, ptr nonnull %4) #9
  call void @llvm.lifetime.start.p0(i64 4, ptr nonnull %5) #9
  store i32 0, ptr %5, align 4, !tbaa !6
  %6 = icmp slt i32 %1, 7
  br i1 %6, label %7, label %10

7:                                                ; preds = %3
  %8 = load i64, ptr %0, align 8, !tbaa !11
  %9 = call i64 @luckyCanonicizer_final_fast_6Vars1(i64 noundef %8, ptr noundef nonnull %4, ptr noundef %2, ptr noundef nonnull %5) #9
  store i64 %9, ptr %0, align 8, !tbaa !11
  br label %20

10:                                               ; preds = %3
  %11 = icmp samesign ult i32 %1, 17
  br i1 %11, label %12, label %20

12:                                               ; preds = %10
  %13 = add nsw i32 %1, -6
  %14 = shl nuw nsw i32 1, %13
  %15 = call i32 @Kit_TruthSemiCanonicize_Yasha1(ptr noundef %0, i32 noundef %1, ptr noundef %2, ptr noundef nonnull %4) #9
  store i32 %15, ptr %5, align 4, !tbaa !6
  call void @luckyCanonicizerS_F_first_16Vars11(ptr noundef %0, i32 noundef %1, i32 noundef %14, ptr noundef nonnull %4, ptr noundef %2, ptr noundef nonnull %5)
  br label %.lr.ph.i.i

.lr.ph.i.i:                                       ; preds = %12, %.lr.ph.i.i
  %.0.in5.i.i = phi i32 [ %.0.i.i, %.lr.ph.i.i ], [ %1, %12 ]
  %.0.i.i = add nsw i32 %.0.in5.i.i, -1
  call void @Kit_TruthChangePhase_64bit(ptr noundef %0, i32 noundef %1, i32 noundef %.0.i.i) #9
  %16 = icmp samesign ugt i32 %.0.in5.i.i, 1
  br i1 %16, label %.lr.ph.i.i, label %luckyCanonicizer_final_fast_16Vars1.exit, !llvm.loop !38

luckyCanonicizer_final_fast_16Vars1.exit:         ; preds = %.lr.ph.i.i
  %notmask.i = shl nsw i32 -1, %1
  %17 = load i32, ptr %5, align 4, !tbaa !6
  %18 = xor i32 %notmask.i, %17
  %19 = xor i32 %18, -1
  store i32 %19, ptr %5, align 4, !tbaa !6
  call void @luckyCanonicizerS_F_first_16Vars11(ptr noundef %0, i32 noundef %1, i32 noundef %14, ptr noundef nonnull %4, ptr noundef %2, ptr noundef nonnull %5)
  br label %20

20:                                               ; preds = %luckyCanonicizer_final_fast_16Vars1.exit, %10, %7
  %21 = load i32, ptr %5, align 4, !tbaa !6
  call void @llvm.lifetime.end.p0(i64 4, ptr nonnull %5) #9
  call void @llvm.lifetime.end.p0(i64 64, ptr nonnull %4) #9
  ret i32 %21
}